(dp0
S'kcat_AA2'
p1
cnumpy.core.multiarray
scalar
p2
(cnumpy
dtype
p3
(S'f8'
p4
I0
I1
tp5
Rp6
(I3
S'<'
p7
NNNI-1
I-1
I0
tp8
bS'\x94\x992>\x82\xd4\x05@'
p9
tp10
Rp11
sS'kcat_AA3'
p12
g2
(g6
S'\xc7\x0cw\xad\xfcb\xf6?'
p13
tp14
Rp15
sS'KD_AG_cat3'
p16
g2
(g6
S'\xa0\xf1\x93r\xef-)?'
p17
tp18
Rp19
sS'KD_AG_cat2'
p20
g2
(g6
S'\x1c\xd2\xd3\xfa\xe3\xae\xc3?'
p21
tp22
Rp23
sS'KD_AG_allo2'
p24
g2
(g6
S'\xa7?\xb6=_t\xe6?'
p25
tp26
Rp27
sS'KD_AG_allo1'
p28
g2
(g6
S'\xba\x0b:e\x15,s@'
p29
tp30
Rp31
sS'KD_AA_allo1'
p32
g2
(g6
S'8\x1d\xd5\x99|~\x96@'
p33
tp34
Rp35
sS'KD_AA_allo2'
p36
g2
(g6
S'xL\xd8\xbc\xdf\x9e\x03@'
p37
tp38
Rp39
sS'KD_AA_allo3'
p40
g2
(g6
S'\x90\xde7\xe6\xfb9\xd7?'
p41
tp42
Rp43
sS'kcat_AG3'
p44
g2
(g6
S'\x95|\x19f\xdeZ\xcb?'
p45
tp46
Rp47
sS'KD_AA_cat3'
p48
g2
(g6
S'd\x15R+-AW?'
p49
tp50
Rp51
sS'KD_AA_cat2'
p52
g2
(g6
S'\xdf\xabd*\xcb\xbf_?'
p53
tp54
Rp55
s.